; ModuleID = '31/585.c'
source_filename = "31/585.c"
target datalayout = "e-m:e-p270:32:32-p271:32:32-p272:64:64-i64:64-f80:128-n8:16:32:64-S128"
target triple = "x86_64-pc-linux-gnu"

%struct.student = type { [100 x i8], %struct.student*, %struct.student* }

@.str = private unnamed_addr constant [4 x i8] c"end\00", align 1
@.str.1 = private unnamed_addr constant [4 x i8] c"%s\0A\00", align 1

; Function Attrs: noinline nounwind uwtable
define dso_local i32 @main() #0 {
  %1 = alloca i32, align 4
  %2 = alloca %struct.student*, align 8
  %3 = alloca %struct.student*, align 8
  %4 = alloca %struct.student*, align 8
  %5 = alloca [100 x i8], align 16
  store i32 0, i32* %1, align 4
  %6 = call noalias i8* @malloc(i64 120) #4
  %7 = bitcast i8* %6 to %struct.student*
  store %struct.student* %7, %struct.student** %4, align 8
  %8 = load %struct.student*, %struct.student** %4, align 8
  %9 = getelementptr inbounds %struct.student, %struct.student* %8, i32 0, i32 0
  %10 = getelementptr inbounds [100 x i8], [100 x i8]* %9, i64 0, i64 0
  %11 = call i32 (i8*, ...) bitcast (i32 (...)* @gets to i32 (i8*, ...)*)(i8* %10)
  %12 = load %struct.student*, %struct.student** %4, align 8
  store %struct.student* %12, %struct.student** %2, align 8
  %13 = load %struct.student*, %struct.student** %2, align 8
  %14 = getelementptr inbounds %struct.student, %struct.student* %13, i32 0, i32 2
  store %struct.student* null, %struct.student** %14, align 8
  %15 = load %struct.student*, %struct.student** %4, align 8
  store %struct.student* %15, %struct.student** %3, align 8
  br label %16

16:                                               ; preds = %22, %0
  %17 = load %struct.student*, %struct.student** %4, align 8
  %18 = getelementptr inbounds %struct.student, %struct.student* %17, i32 0, i32 0
  %19 = getelementptr inbounds [100 x i8], [100 x i8]* %18, i64 0, i64 0
  %20 = call i32 @strcmp(i8* %19, i8* getelementptr inbounds ([4 x i8], [4 x i8]* @.str, i64 0, i64 0)) #5
  %21 = icmp ne i32 %20, 0
  br i1 %21, label %22, label %36

22:                                               ; preds = %16
  %23 = call noalias i8* @malloc(i64 120) #4
  %24 = bitcast i8* %23 to %struct.student*
  store %struct.student* %24, %struct.student** %4, align 8
  %25 = load %struct.student*, %struct.student** %4, align 8
  %26 = getelementptr inbounds %struct.student, %struct.student* %25, i32 0, i32 0
  %27 = getelementptr inbounds [100 x i8], [100 x i8]* %26, i64 0, i64 0
  %28 = call i32 (i8*, ...) bitcast (i32 (...)* @gets to i32 (i8*, ...)*)(i8* %27)
  %29 = load %struct.student*, %struct.student** %4, align 8
  %30 = load %struct.student*, %struct.student** %3, align 8
  %31 = getelementptr inbounds %struct.student, %struct.student* %30, i32 0, i32 1
  store %struct.student* %29, %struct.student** %31, align 8
  %32 = load %struct.student*, %struct.student** %3, align 8
  %33 = load %struct.student*, %struct.student** %4, align 8
  %34 = getelementptr inbounds %struct.student, %struct.student* %33, i32 0, i32 2
  store %struct.student* %32, %struct.student** %34, align 8
  %35 = load %struct.student*, %struct.student** %4, align 8
  store %struct.student* %35, %struct.student** %3, align 8
  br label %16

36:                                               ; preds = %16
  br label %37

37:                                               ; preds = %42, %36
  %38 = load %struct.student*, %struct.student** %4, align 8
  %39 = getelementptr inbounds %struct.student, %struct.student* %38, i32 0, i32 2
  %40 = load %struct.student*, %struct.student** %39, align 8
  %41 = icmp ne %struct.student* %40, null
  br i1 %41, label %42, label %50

42:                                               ; preds = %37
  %43 = load %struct.student*, %struct.student** %4, align 8
  %44 = getelementptr inbounds %struct.student, %struct.student* %43, i32 0, i32 2
  %45 = load %struct.student*, %struct.student** %44, align 8
  store %struct.student* %45, %struct.student** %4, align 8
  %46 = load %struct.student*, %struct.student** %4, align 8
  %47 = getelementptr inbounds %struct.student, %struct.student* %46, i32 0, i32 0
  %48 = getelementptr inbounds [100 x i8], [100 x i8]* %47, i64 0, i64 0
  %49 = call i32 (i8*, ...) @printf(i8* getelementptr inbounds ([4 x i8], [4 x i8]* @.str.1, i64 0, i64 0), i8* %48)
  br label %37

50:                                               ; preds = %37
  ret i32 0
}

; Function Attrs: nounwind
declare dso_local noalias i8* @malloc(i64) #1

declare dso_local i32 @gets(...) #2

; Function Attrs: nounwind readonly
declare dso_local i32 @strcmp(i8*, i8*) #3

declare dso_local i32 @printf(i8*, ...) #2


!llvm.module.flags = !{!0}
!llvm.ident = !{!1}

!0 = !{i32 1, !"wchar_size", i32 4}
!1 = !{!"clang version 10.0.0-4ubuntu1 "}
